target datalayout = "e-m:e-p270:32:32-p271:32:32-p272:64:64-i64:64-i128:128-f80:128-n8:16:32:64-S128"
target triple = "x86_64-pc-linux-gnu"

%struct.Vec_Int_t_ = type { i32, i32, ptr }
%struct.Abc_Ntk_t_ = type { i32, i32, ptr, ptr, ptr, ptr, ptr, ptr, ptr, ptr, ptr, ptr, ptr, [11 x i32], i32, i32, i32, i32, ptr, i32, ptr, ptr, i32, i32, i32, double, i32, %struct.Vec_Int_t_, ptr, ptr, ptr, ptr, ptr, float, i32, ptr, ptr, ptr, ptr, ptr, ptr, ptr, ptr, ptr, ptr, ptr, ptr, ptr, ptr, ptr, ptr, ptr, ptr, ptr, ptr, ptr, ptr }
%struct.Vec_Ptr_t_ = type { i32, i32, ptr }

@.str.2 = private unnamed_addr constant [22 x i8] c"Total supports = %d.\0A\00", align 1

; Function Attrs: inlinehint nounwind uwtable
define internal ptr @Vec_PtrEntry(ptr noundef %0, i32 noundef %1) #2 {
  %3 = alloca ptr, align 8
  %4 = alloca i32, align 4
  store ptr %0, ptr %3, align 8, !tbaa !8
  store i32 %1, ptr %4, align 4, !tbaa !16
  %5 = load ptr, ptr %3, align 8, !tbaa !8
  %6 = getelementptr inbounds nuw %struct.Vec_Ptr_t_, ptr %5, i32 0, i32 2
  %7 = load ptr, ptr %6, align 8, !tbaa !36
  %8 = load i32, ptr %4, align 4, !tbaa !16
  %9 = sext i32 %8 to i64
  %10 = getelementptr inbounds ptr, ptr %7, i64 %9
  %11 = load ptr, ptr %10, align 8, !tbaa !39
  ret ptr %11
}

; Function Attrs: inlinehint nounwind uwtable
define internal void @Vec_PtrFree(ptr noundef %0) #2 {
  %2 = alloca ptr, align 8
  store ptr %0, ptr %2, align 8, !tbaa !8
  %3 = load ptr, ptr %2, align 8, !tbaa !8
  %4 = getelementptr inbounds nuw %struct.Vec_Ptr_t_, ptr %3, i32 0, i32 2
  %5 = load ptr, ptr %4, align 8, !tbaa !36
  %6 = icmp ne ptr %5, null
  br i1 %6, label %7, label %13

7:                                                ; preds = %1
  %8 = load ptr, ptr %2, align 8, !tbaa !8
  %9 = getelementptr inbounds nuw %struct.Vec_Ptr_t_, ptr %8, i32 0, i32 2
  %10 = load ptr, ptr %9, align 8, !tbaa !36
  call void @free(ptr noundef %10) #11
  %11 = load ptr, ptr %2, align 8, !tbaa !8
  %12 = getelementptr inbounds nuw %struct.Vec_Ptr_t_, ptr %11, i32 0, i32 2
  store ptr null, ptr %12, align 8, !tbaa !36
  br label %14

13:                                               ; preds = %1
  br label %14

14:                                               ; preds = %13, %7
  %15 = load ptr, ptr %2, align 8, !tbaa !8
  %16 = icmp ne ptr %15, null
  br i1 %16, label %17, label %19

17:                                               ; preds = %14
  %18 = load ptr, ptr %2, align 8, !tbaa !8
  call void @free(ptr noundef %18) #11
  store ptr null, ptr %2, align 8, !tbaa !8
  br label %20

19:                                               ; preds = %14
  br label %20

20:                                               ; preds = %19, %17
  ret void
}

; Function Attrs: inlinehint nounwind uwtable
define internal i32 @Vec_PtrSize(ptr noundef %0) #2 {
  %2 = alloca ptr, align 8
  store ptr %0, ptr %2, align 8, !tbaa !8
  %3 = load ptr, ptr %2, align 8, !tbaa !8
  %4 = getelementptr inbounds nuw %struct.Vec_Ptr_t_, ptr %3, i32 0, i32 1
  %5 = load i32, ptr %4, align 4, !tbaa !40
  ret i32 %5
}

; Function Attrs: inlinehint nounwind uwtable
define internal ptr @Abc_NtkCo(ptr noundef %0, i32 noundef %1) #2 {
  %3 = alloca ptr, align 8
  %4 = alloca i32, align 4
  store ptr %0, ptr %3, align 8, !tbaa !32
  store i32 %1, ptr %4, align 4, !tbaa !16
  %5 = load ptr, ptr %3, align 8, !tbaa !32
  %6 = getelementptr inbounds nuw %struct.Abc_Ntk_t_, ptr %5, i32 0, i32 9
  %7 = load ptr, ptr %6, align 8, !tbaa !48
  %8 = load i32, ptr %4, align 4, !tbaa !16
  %9 = call ptr @Vec_PtrEntry(ptr noundef %7, i32 noundef %8)
  ret ptr %9
}

; Function Attrs: inlinehint nounwind uwtable
define internal i32 @Abc_NtkCoNum(ptr noundef %0) #2 {
  %2 = alloca ptr, align 8
  store ptr %0, ptr %2, align 8, !tbaa !32
  %3 = load ptr, ptr %2, align 8, !tbaa !32
  %4 = getelementptr inbounds nuw %struct.Abc_Ntk_t_, ptr %3, i32 0, i32 9
  %5 = load ptr, ptr %4, align 8, !tbaa !48
  %6 = call i32 @Vec_PtrSize(ptr noundef %5)
  ret i32 %6
}

; Function Attrs: nounwind uwtable
define void @Abc_NtkSupportSum(ptr noundef %0) #0 {
  %2 = alloca ptr, align 8
  %3 = alloca ptr, align 8
  %4 = alloca ptr, align 8
  %5 = alloca i32, align 4
  %6 = alloca i32, align 4
  store ptr %0, ptr %2, align 8, !tbaa !32
  call void @llvm.lifetime.start.p0(i64 8, ptr %3) #11
  call void @llvm.lifetime.start.p0(i64 8, ptr %4) #11
  call void @llvm.lifetime.start.p0(i64 4, ptr %5) #11
  call void @llvm.lifetime.start.p0(i64 4, ptr %6) #11
  store i32 0, ptr %6, align 4, !tbaa !16
  store i32 0, ptr %5, align 4, !tbaa !16
  br label %7

7:                                                ; preds = %26, %1
  %8 = load i32, ptr %5, align 4, !tbaa !16
  %9 = load ptr, ptr %2, align 8, !tbaa !32
  %10 = call i32 @Abc_NtkCoNum(ptr noundef %9)
  %11 = icmp slt i32 %8, %10
  br i1 %11, label %12, label %16

12:                                               ; preds = %7
  %13 = load ptr, ptr %2, align 8, !tbaa !32
  %14 = load i32, ptr %5, align 4, !tbaa !16
  %15 = call ptr @Abc_NtkCo(ptr noundef %13, i32 noundef %14)
  store ptr %15, ptr %4, align 8, !tbaa !3
  br label %16

16:                                               ; preds = %12, %7
  %17 = phi i1 [ false, %7 ], [ true, %12 ]
  br i1 %17, label %18, label %29

18:                                               ; preds = %16
  %19 = load ptr, ptr %2, align 8, !tbaa !32
  %20 = call ptr @Abc_NtkNodeSupport(ptr noundef %19, ptr noundef %4, i32 noundef 1)
  store ptr %20, ptr %3, align 8, !tbaa !8
  %21 = load ptr, ptr %3, align 8, !tbaa !8
  %22 = call i32 @Vec_PtrSize(ptr noundef %21)
  %23 = load i32, ptr %6, align 4, !tbaa !16
  %24 = add nsw i32 %23, %22
  store i32 %24, ptr %6, align 4, !tbaa !16
  %25 = load ptr, ptr %3, align 8, !tbaa !8
  call void @Vec_PtrFree(ptr noundef %25)
  br label %26

26:                                               ; preds = %18
  %27 = load i32, ptr %5, align 4, !tbaa !16
  %28 = add nsw i32 %27, 1
  store i32 %28, ptr %5, align 4, !tbaa !16
  br label %7, !llvm.loop !145

29:                                               ; preds = %16
  %30 = load i32, ptr %6, align 4, !tbaa !16
  %31 = call i32 (ptr, ...) @printf(ptr noundef @.str.2, i32 noundef %30)
  call void @llvm.lifetime.end.p0(i64 4, ptr %6) #11
  call void @llvm.lifetime.end.p0(i64 4, ptr %5) #11
  call void @llvm.lifetime.end.p0(i64 8, ptr %4) #11
  call void @llvm.lifetime.end.p0(i64 8, ptr %3) #11
  ret void
}