; Function Attrs: nounwind uwtable
define void @Abc_NtkSupportSum(ptr noundef captures(none) %0) local_unnamed_addr #0 {
  %2 = alloca ptr, align 8
  call void @llvm.lifetime.start.p0(i64 8, ptr nonnull %2) #23
  %3 = getelementptr i8, ptr %0, i64 64
  %.val1012 = load ptr, ptr %3, align 8, !tbaa !48
  %4 = getelementptr i8, ptr %.val1012, i64 4
  %.val10.val13 = load i32, ptr %4, align 4, !tbaa !41
  %5 = icmp sgt i32 %.val10.val13, 0
  br i1 %5, label %.lr.ph, label %.critedge

.lr.ph:                                           ; preds = %1, %Vec_PtrFree.exit
  %indvars.iv = phi i64 [ %indvars.iv.next, %Vec_PtrFree.exit ], [ 0, %1 ]
  %.val1016 = phi ptr [ %.val10, %Vec_PtrFree.exit ], [ %.val1012, %1 ]
  %.015 = phi i32 [ %11, %Vec_PtrFree.exit ], [ 0, %1 ]
  %6 = getelementptr i8, ptr %.val1016, i64 8
  %.val11.val = load ptr, ptr %6, align 8, !tbaa !36
  %7 = getelementptr inbounds nuw ptr, ptr %.val11.val, i64 %indvars.iv
  %8 = load ptr, ptr %7, align 8, !tbaa !38
  store ptr %8, ptr %2, align 8, !tbaa !52
  %9 = call ptr @Abc_NtkNodeSupport(ptr noundef nonnull %0, ptr noundef nonnull %2, i32 noundef 1)
  %10 = getelementptr i8, ptr %9, i64 4
  %.val = load i32, ptr %10, align 4, !tbaa !41
  %11 = add nsw i32 %.val, %.015
  %12 = getelementptr inbounds nuw i8, ptr %9, i64 8
  %13 = load ptr, ptr %12, align 8, !tbaa !36
  %.not.i = icmp eq ptr %13, null
  br i1 %.not.i, label %Vec_PtrFree.exit, label %14

14:                                               ; preds = %.lr.ph
  tail call void @free(ptr noundef nonnull %13) #23
  br label %Vec_PtrFree.exit

Vec_PtrFree.exit:                                 ; preds = %.lr.ph, %14
  tail call void @free(ptr noundef nonnull %9) #23
  %indvars.iv.next = add nuw nsw i64 %indvars.iv, 1
  %.val10 = load ptr, ptr %3, align 8, !tbaa !48
  %15 = getelementptr i8, ptr %.val10, i64 4
  %.val10.val = load i32, ptr %15, align 4, !tbaa !41
  %16 = sext i32 %.val10.val to i64
  %17 = icmp slt i64 %indvars.iv.next, %16
  br i1 %17, label %.lr.ph, label %.critedge, !llvm.loop !141

.critedge:                                        ; preds = %Vec_PtrFree.exit, %1
  %.0.lcssa = phi i32 [ 0, %1 ], [ %11, %Vec_PtrFree.exit ]
  %18 = tail call i32 (ptr, ...) @printf(ptr noundef nonnull dereferenceable(1) @.str.2, i32 noundef %.0.lcssa)
  call void @llvm.lifetime.end.p0(i64 8, ptr nonnull %2) #23
  ret void
}